target datalayout = "e-m:e-p270:32:32-p271:32:32-p272:64:64-i64:64-i128:128-f80:128-n8:16:32:64-S128"
target triple = "x86_64-pc-linux-gnu"

; Function Attrs: nounwind uwtable
define void @stbi__tga_read_rgb16(ptr noundef %0, ptr noundef %1) #0 {
  %3 = alloca ptr, align 8
  %4 = alloca ptr, align 8
  %5 = alloca i16, align 2
  %6 = alloca i16, align 2
  %7 = alloca i32, align 4
  %8 = alloca i32, align 4
  %9 = alloca i32, align 4
  store ptr %0, ptr %3, align 8, !tbaa !3
  store ptr %1, ptr %4, align 8, !tbaa !7
  call void @llvm.lifetime.start.p0(i64 2, ptr %5) #13
  %10 = load ptr, ptr %3, align 8, !tbaa !3
  %11 = call i32 @stbi__get16le(ptr noundef %10)
  %12 = trunc i32 %11 to i16
  store i16 %12, ptr %5, align 2, !tbaa !73
  call void @llvm.lifetime.start.p0(i64 2, ptr %6) #13
  store i16 31, ptr %6, align 2, !tbaa !73
  call void @llvm.lifetime.start.p0(i64 4, ptr %7) #13
  %13 = load i16, ptr %5, align 2, !tbaa !73
  %14 = zext i16 %13 to i32
  %15 = ashr i32 %14, 10
  %16 = load i16, ptr %6, align 2, !tbaa !73
  %17 = zext i16 %16 to i32
  %18 = and i32 %15, %17
  store i32 %18, ptr %7, align 4, !tbaa !9
  call void @llvm.lifetime.start.p0(i64 4, ptr %8) #13
  %19 = load i16, ptr %5, align 2, !tbaa !73
  %20 = zext i16 %19 to i32
  %21 = ashr i32 %20, 5
  %22 = load i16, ptr %6, align 2, !tbaa !73
  %23 = zext i16 %22 to i32
  %24 = and i32 %21, %23
  store i32 %24, ptr %8, align 4, !tbaa !9
  call void @llvm.lifetime.start.p0(i64 4, ptr %9) #13
  %25 = load i16, ptr %5, align 2, !tbaa !73
  %26 = zext i16 %25 to i32
  %27 = load i16, ptr %6, align 2, !tbaa !73
  %28 = zext i16 %27 to i32
  %29 = and i32 %26, %28
  store i32 %29, ptr %9, align 4, !tbaa !9
  %30 = load i32, ptr %7, align 4, !tbaa !9
  %31 = mul nsw i32 %30, 255
  %32 = sdiv i32 %31, 31
  %33 = trunc i32 %32 to i8
  %34 = load ptr, ptr %4, align 8, !tbaa !7
  %35 = getelementptr inbounds i8, ptr %34, i64 0
  store i8 %33, ptr %35, align 1, !tbaa !23
  %36 = load i32, ptr %8, align 4, !tbaa !9
  %37 = mul nsw i32 %36, 255
  %38 = sdiv i32 %37, 31
  %39 = trunc i32 %38 to i8
  %40 = load ptr, ptr %4, align 8, !tbaa !7
  %41 = getelementptr inbounds i8, ptr %40, i64 1
  store i8 %39, ptr %41, align 1, !tbaa !23
  %42 = load i32, ptr %9, align 4, !tbaa !9
  %43 = mul nsw i32 %42, 255
  %44 = sdiv i32 %43, 31
  %45 = trunc i32 %44 to i8
  %46 = load ptr, ptr %4, align 8, !tbaa !7
  %47 = getelementptr inbounds i8, ptr %46, i64 2
  store i8 %45, ptr %47, align 1, !tbaa !23
  call void @llvm.lifetime.end.p0(i64 4, ptr %9) #13
  call void @llvm.lifetime.end.p0(i64 4, ptr %8) #13
  call void @llvm.lifetime.end.p0(i64 4, ptr %7) #13
  call void @llvm.lifetime.end.p0(i64 2, ptr %6) #13
  call void @llvm.lifetime.end.p0(i64 2, ptr %5) #13
  ret void
}