; Function Attrs: nounwind uwtable
define void @stbi__tga_read_rgb16(ptr noundef %0, ptr noundef writeonly captures(none) initializes((0, 3)) %1) local_unnamed_addr #2 {
  %3 = tail call i32 @stbi__get16le(ptr noundef %0)
  %4 = trunc nuw i32 %3 to i16
  %5 = lshr i16 %4, 10
  %6 = and i16 %5, 31
  %.lhs.trunc = mul nuw nsw i16 %6, 255
  %7 = udiv i16 %.lhs.trunc, 31
  %8 = trunc nuw i16 %7 to i8
  store i8 %8, ptr %1, align 1, !tbaa !21
  %9 = lshr i16 %4, 5
  %10 = and i16 %9, 31
  %.lhs.trunc12 = mul nuw nsw i16 %10, 255
  %11 = udiv i16 %.lhs.trunc12, 31
  %12 = trunc nuw i16 %11 to i8
  %13 = getelementptr inbounds nuw i8, ptr %1, i64 1
  store i8 %12, ptr %13, align 1, !tbaa !21
  %14 = and i16 %4, 31
  %.lhs.trunc14 = mul nuw nsw i16 %14, 255
  %15 = udiv i16 %.lhs.trunc14, 31
  %16 = trunc nuw i16 %15 to i8
  %17 = getelementptr inbounds nuw i8, ptr %1, i64 2
  store i8 %16, ptr %17, align 1, !tbaa !21
  ret void
}